Certificate:
    Data:
        Version: 3 (0x2)
        Serial Number: 110 (0x6e)
        Signature Algorithm: sha256WithRSAEncryption
        Issuer: C=NT, ST=The Internet, L=Veles Network, O=Veles Core, OU=dVPN, CN=Veles Core dVPN CA/name=Veles dVPN/emailAddress=admin@veles.network
        Validity
            Not Before: Nov 27 16:28:31 2019 GMT
            Not After : Nov 24 16:28:31 2029 GMT
        Subject: C=NT, ST=The Internet, L=Veles Network, O=Veles Core, OU=dVPN, CN=server/name=Veles dVPN Node/emailAddress=admin@veles.network
        Subject Public Key Info:
            Public Key Algorithm: rsaEncryption
                RSA Public-Key: (2048 bit)
                Modulus:
                    00:c8:a3:ed:35:36:fd:64:74:0b:bf:52:49:b4:d9:
                    73:0d:a8:07:bb:30:3d:6e:63:9a:65:b9:0d:3f:08:
                    f5:9f:3b:b0:35:81:c9:f4:6b:0a:33:50:38:dc:50:
                    71:28:68:f5:24:4d:90:c7:e8:81:dd:f7:f3:de:a9:
                    f7:75:68:68:8b:1d:f2:08:f7:f3:e1:9a:f5:5e:63:
                    6f:5d:39:ac:be:33:2a:22:41:63:d7:aa:6a:fd:62:
                    c4:4e:49:50:30:e7:d6:90:a0:1b:4f:12:2f:b2:5c:
                    72:7e:72:1e:4b:e5:a1:38:fb:6c:8f:c0:01:8c:ea:
                    a7:8a:f2:13:a7:d8:96:c0:b7:76:85:f6:9c:25:67:
                    3c:5c:c4:47:42:b4:10:1b:c5:8e:eb:8f:a4:82:cb:
                    47:a0:b3:05:01:00:01:80:31:8f:43:6b:a4:46:91:
                    f9:d6:5b:54:0e:2f:b1:5d:da:ed:ad:2b:16:81:ff:
                    4c:bc:36:53:ff:96:68:f6:25:8a:9f:16:40:1b:f6:
                    94:e9:f6:85:ea:29:e3:49:2a:e7:82:ac:a7:7a:fa:
                    0b:ee:fc:fd:92:b1:9b:cf:16:e5:43:ba:a1:55:17:
                    7c:6e:8d:c4:a0:05:07:7d:94:a6:ec:33:33:f4:24:
                    39:0a:0c:c3:11:94:2f:72:99:2a:d2:10:e5:12:0c:
                    9d:af
                Exponent: 65537 (0x10001)
        X509v3 extensions:
            X509v3 Basic Constraints: 
                CA:FALSE
            Netscape Cert Type: 
                SSL Server
            Netscape Comment: 
                Easy-RSA Generated Server Certificate
            X509v3 Subject Key Identifier: 
                82:58:45:52:02:A0:5E:5B:71:6B:11:AC:F7:32:F9:E8:80:F1:38:A5
            X509v3 Authority Key Identifier: 
                keyid:F9:A6:50:5C:FB:CD:FC:75:15:E4:CE:30:3A:DE:33:1D:21:3C:DE:CF
                DirName:/C=NT/ST=The Internet/L=Veles Network/O=Veles Core/OU=dVPN/CN=Veles Core dVPN CA/name=Veles dVPN/emailAddress=admin@veles.network
                serial:18:C2:47:26:9C:6E:36:3A:9F:4A:A4:82:76:69:67:27:71:5B:2A:D1

            X509v3 Extended Key Usage: 
                TLS Web Server Authentication
            X509v3 Key Usage: 
                Digital Signature, Key Encipherment
            X509v3 Subject Alternative Name: 
                DNS:server
    Signature Algorithm: sha256WithRSAEncryption
         0f:1a:7e:08:8d:47:05:21:fc:13:00:3a:fa:a8:69:d1:e6:07:
         87:bc:f9:08:58:0b:a0:a1:39:b2:d7:c5:12:5e:2c:88:85:6b:
         75:c7:01:97:c6:33:06:16:cb:00:f7:94:03:ee:a8:cc:82:49:
         75:5f:b7:e4:5a:00:d2:73:82:09:67:04:84:c8:6a:2e:07:f1:
         44:f9:0f:b7:fa:a3:56:40:0a:cf:a5:ae:1e:d5:f8:5c:72:82:
         bb:83:fd:5b:4a:51:ef:19:ca:a4:fa:76:e2:79:78:3c:98:8d:
         ca:c7:21:67:80:f1:e7:72:a4:31:f3:4b:de:02:23:e7:8c:78:
         44:5a:1e:62:38:c5:22:6b:a6:88:dd:9e:c5:96:98:6c:a8:9c:
         8a:14:6f:06:16:96:2b:a0:e2:71:34:b7:93:57:d6:07:4b:b6:
         c0:34:41:55:9e:c9:a0:12:3a:47:10:68:73:24:ef:97:ee:48:
         c6:4c:cc:01:61:36:45:b7:5e:52:a6:d7:ac:23:25:7e:b8:b8:
         23:3d:59:8c:eb:c3:16:fe:39:0a:ce:0f:18:d5:b3:6e:0e:be:
         67:ea:7d:2e:d6:37:c2:6e:af:df:cb:2c:e0:7e:13:5d:b6:63:
         cd:49:84:74:a5:a9:b0:07:25:ed:93:b1:05:c1:a7:06:08:80:
         ed:c0:a8:ce
-----BEGIN CERTIFICATE-----
MIIFiTCCBHGgAwIBAgIBbjANBgkqhkiG9w0BAQsFADCBtjELMAkGA1UEBhMCTlQx
FTATBgNVBAgTDFRoZSBJbnRlcm5ldDEWMBQGA1UEBxMNVmVsZXMgTmV0d29yazET
MBEGA1UEChMKVmVsZXMgQ29yZTENMAsGA1UECxMEZFZQTjEbMBkGA1UEAxMSVmVs
ZXMgQ29yZSBkVlBOIENBMRMwEQYDVQQpEwpWZWxlcyBkVlBOMSIwIAYJKoZIhvcN
AQkBFhNhZG1pbkB2ZWxlcy5uZXR3b3JrMB4XDTE5MTEyNzE2MjgzMVoXDTI5MTEy
NDE2MjgzMVowga8xCzAJBgNVBAYTAk5UMRUwEwYDVQQIEwxUaGUgSW50ZXJuZXQx
FjAUBgNVBAcTDVZlbGVzIE5ldHdvcmsxEzARBgNVBAoTClZlbGVzIENvcmUxDTAL
BgNVBAsTBGRWUE4xDzANBgNVBAMTBnNlcnZlcjEYMBYGA1UEKRMPVmVsZXMgZFZQ
TiBOb2RlMSIwIAYJKoZIhvcNAQkBFhNhZG1pbkB2ZWxlcy5uZXR3b3JrMIIBIjAN
BgkqhkiG9w0BAQEFAAOCAQ8AMIIBCgKCAQEAyKPtNTb9ZHQLv1JJtNlzDagHuzA9
bmOaZbkNPwj1nzuwNYHJ9GsKM1A43FBxKGj1JE2Qx+iB3ffz3qn3dWhoix3yCPfz
4Zr1XmNvXTmsvjMqIkFj16pq/WLETklQMOfWkKAbTxIvslxyfnIeS+WhOPtsj8AB
jOqnivITp9iWwLd2hfacJWc8XMRHQrQQG8WO64+kgstHoLMFAQABgDGPQ2ukRpH5
1ltUDi+xXdrtrSsWgf9MvDZT/5Zo9iWKnxZAG/aU6faF6injSSrngqynevoL7vz9
krGbzxblQ7qhVRd8bo3EoAUHfZSm7DMz9CQ5CgzDEZQvcpkq0hDlEgydrwIDAQAB
o4IBpTCCAaEwCQYDVR0TBAIwADARBglghkgBhvhCAQEEBAMCBkAwNAYJYIZIAYb4
QgENBCcWJUVhc3ktUlNBIEdlbmVyYXRlZCBTZXJ2ZXIgQ2VydGlmaWNhdGUwHQYD
VR0OBBYEFIJYRVICoF5bcWsRrPcy+eiA8TilMIH2BgNVHSMEge4wgeuAFPmmUFz7
zfx1FeTOMDreMx0hPN7PoYG8pIG5MIG2MQswCQYDVQQGEwJOVDEVMBMGA1UECBMM
VGhlIEludGVybmV0MRYwFAYDVQQHEw1WZWxlcyBOZXR3b3JrMRMwEQYDVQQKEwpW
ZWxlcyBDb3JlMQ0wCwYDVQQLEwRkVlBOMRswGQYDVQQDExJWZWxlcyBDb3JlIGRW
UE4gQ0ExEzARBgNVBCkTClZlbGVzIGRWUE4xIjAgBgkqhkiG9w0BCQEWE2FkbWlu
QHZlbGVzLm5ldHdvcmuCFBjCRyacbjY6n0qkgnZpZydxWyrRMBMGA1UdJQQMMAoG
CCsGAQUFBwMBMAsGA1UdDwQEAwIFoDARBgNVHREECjAIggZzZXJ2ZXIwDQYJKoZI
hvcNAQELBQADggEBAA8afgiNRwUh/BMAOvqoadHmB4e8+QhYC6ChObLXxRJeLIiF
a3XHAZfGMwYWywD3lAPuqMyCSXVft+RaANJzgglnBITIai4H8UT5D7f6o1ZACs+l
rh7V+FxygruD/VtKUe8ZyqT6duJ5eDyYjcrHIWeA8edypDHzS94CI+eMeERaHmI4
xSJrpojdnsWWmGyonIoUbwYWliug4nE0t5NX1gdLtsA0QVWeyaASOkcQaHMk75fu
SMZMzAFhNkW3XlKm16wjJX64uCM9WYzrwxb+OQrODxjVs24OvmfqfS7WN8Jur9/L
LOB+E122Y81JhHSlqbAHJe2TsQXBpwYIgO3AqM4=
-----END CERTIFICATE-----
