Certificate:
    Data:
        Version: 3 (0x2)
        Serial Number: 6 (0x6)
        Signature Algorithm: sha256WithRSAEncryption
        Issuer: C=NT, ST=The Internet, L=Veles Network, O=Veles Core, OU=dVPN, CN=Veles Core dVPN CA/name=Veles dVPN/emailAddress=admin@veles.network
        Validity
            Not Before: Nov 22 00:01:35 2019 GMT
            Not After : Nov 19 00:01:35 2029 GMT
        Subject: C=NT, ST=The Internet, L=Veles Network, O=Veles Core, OU=dVPN, CN=server/name=Veles dVPN Node/emailAddress=admin@veles.network
        Subject Public Key Info:
            Public Key Algorithm: rsaEncryption
                RSA Public-Key: (2048 bit)
                Modulus:
                    00:ec:36:d6:54:29:76:ab:77:c7:09:87:a6:21:6e:
                    fc:73:d9:26:3a:f0:ba:72:22:98:67:e4:8b:0f:fa:
                    2e:cb:6f:d8:3f:a4:f2:fd:7c:cd:6d:79:b7:be:e6:
                    b3:04:76:5a:88:cd:d2:c4:1a:95:53:f8:0c:74:58:
                    bf:fc:c5:3f:0b:cc:22:c5:bd:12:65:54:43:c5:b7:
                    88:2e:2a:33:e5:ba:e6:e1:7a:e5:30:63:37:04:4e:
                    5b:34:82:e4:14:1c:e1:3b:8f:3b:be:a2:78:36:60:
                    6e:e8:f1:49:b3:b2:c5:6b:09:41:6a:1d:69:46:b4:
                    65:ee:92:d0:59:fc:54:db:10:1e:74:6e:17:a2:f0:
                    03:90:d0:f5:48:9d:a5:77:43:9b:ee:06:cf:77:ce:
                    d6:d4:92:97:b6:d1:4a:26:19:59:77:3b:47:a0:6f:
                    3e:d4:d2:52:87:c6:96:dc:7a:f4:d4:8a:8e:5d:39:
                    f0:e4:c0:2d:60:12:ca:a9:ae:d4:08:ef:38:6e:14:
                    fc:db:2d:85:e8:f0:dc:e9:73:3f:07:f5:0a:b7:e1:
                    ce:82:59:5e:a2:49:c0:54:a1:4d:60:62:2c:98:df:
                    54:c0:10:8a:f8:b1:97:4a:ed:da:9d:49:03:59:40:
                    55:c8:56:ee:5c:b6:03:70:65:30:91:ae:97:3a:4f:
                    2e:91
                Exponent: 65537 (0x10001)
        X509v3 extensions:
            X509v3 Basic Constraints: 
                CA:FALSE
            Netscape Cert Type: 
                SSL Server
            Netscape Comment: 
                Easy-RSA Generated Server Certificate
            X509v3 Subject Key Identifier: 
                30:FC:E1:FE:09:86:32:EB:75:1C:ED:16:35:CD:68:DF:E5:AC:F0:FC
            X509v3 Authority Key Identifier: 
                keyid:F9:A6:50:5C:FB:CD:FC:75:15:E4:CE:30:3A:DE:33:1D:21:3C:DE:CF
                DirName:/C=NT/ST=The Internet/L=Veles Network/O=Veles Core/OU=dVPN/CN=Veles Core dVPN CA/name=Veles dVPN/emailAddress=admin@veles.network
                serial:18:C2:47:26:9C:6E:36:3A:9F:4A:A4:82:76:69:67:27:71:5B:2A:D1

            X509v3 Extended Key Usage: 
                TLS Web Server Authentication
            X509v3 Key Usage: 
                Digital Signature, Key Encipherment
            X509v3 Subject Alternative Name: 
                DNS:server
    Signature Algorithm: sha256WithRSAEncryption
         8c:f8:de:00:0a:d5:db:80:bd:1d:a2:d0:fe:bb:3d:d0:72:c1:
         5b:64:17:8f:cf:59:d2:6d:df:f7:e3:7e:3f:f0:ef:f7:f0:03:
         ce:c4:6b:37:86:01:b4:dc:ef:4a:84:e4:b4:20:d5:b8:6a:fb:
         b0:fe:a1:40:2d:6d:df:ed:29:fe:34:bb:78:79:bb:67:a7:78:
         d2:d0:d6:b8:83:cb:8e:e6:9e:e7:e1:5f:0b:0b:27:53:77:bf:
         b3:e2:22:19:bb:49:24:84:32:3b:55:4d:71:98:9f:78:45:c8:
         a2:1c:59:f6:f7:8a:fb:c4:90:83:f8:ed:51:6e:21:74:8f:85:
         ec:01:dc:29:eb:ea:c2:cd:c6:db:59:f4:48:66:4d:a0:3a:58:
         b3:ff:6e:1b:9d:00:00:96:a2:e4:b7:c0:42:33:ff:b9:de:53:
         12:75:11:69:3c:e6:58:70:45:ab:b2:d1:9c:f4:d9:d3:86:49:
         39:91:3a:f0:aa:f7:93:22:9a:b1:de:23:3d:c9:d5:7b:d0:93:
         4a:0e:b7:0a:2b:ac:63:30:25:cc:04:5d:7c:ad:df:45:97:87:
         84:97:74:3b:69:15:98:65:d4:15:99:ac:a1:cf:e6:6e:24:de:
         9e:b0:b2:1f:66:c4:09:a5:28:3b:69:8a:67:77:2b:f6:97:28:
         50:ee:b9:ae
-----BEGIN CERTIFICATE-----
MIIFiTCCBHGgAwIBAgIBBjANBgkqhkiG9w0BAQsFADCBtjELMAkGA1UEBhMCTlQx
FTATBgNVBAgTDFRoZSBJbnRlcm5ldDEWMBQGA1UEBxMNVmVsZXMgTmV0d29yazET
MBEGA1UEChMKVmVsZXMgQ29yZTENMAsGA1UECxMEZFZQTjEbMBkGA1UEAxMSVmVs
ZXMgQ29yZSBkVlBOIENBMRMwEQYDVQQpEwpWZWxlcyBkVlBOMSIwIAYJKoZIhvcN
AQkBFhNhZG1pbkB2ZWxlcy5uZXR3b3JrMB4XDTE5MTEyMjAwMDEzNVoXDTI5MTEx
OTAwMDEzNVowga8xCzAJBgNVBAYTAk5UMRUwEwYDVQQIEwxUaGUgSW50ZXJuZXQx
FjAUBgNVBAcTDVZlbGVzIE5ldHdvcmsxEzARBgNVBAoTClZlbGVzIENvcmUxDTAL
BgNVBAsTBGRWUE4xDzANBgNVBAMTBnNlcnZlcjEYMBYGA1UEKRMPVmVsZXMgZFZQ
TiBOb2RlMSIwIAYJKoZIhvcNAQkBFhNhZG1pbkB2ZWxlcy5uZXR3b3JrMIIBIjAN
BgkqhkiG9w0BAQEFAAOCAQ8AMIIBCgKCAQEA7DbWVCl2q3fHCYemIW78c9kmOvC6
ciKYZ+SLD/ouy2/YP6Ty/XzNbXm3vuazBHZaiM3SxBqVU/gMdFi//MU/C8wixb0S
ZVRDxbeILioz5brm4XrlMGM3BE5bNILkFBzhO487vqJ4NmBu6PFJs7LFawlBah1p
RrRl7pLQWfxU2xAedG4XovADkND1SJ2ld0Ob7gbPd87W1JKXttFKJhlZdztHoG8+
1NJSh8aW3Hr01IqOXTnw5MAtYBLKqa7UCO84bhT82y2F6PDc6XM/B/UKt+HOglle
oknAVKFNYGIsmN9UwBCK+LGXSu3anUkDWUBVyFbuXLYDcGUwka6XOk8ukQIDAQAB
o4IBpTCCAaEwCQYDVR0TBAIwADARBglghkgBhvhCAQEEBAMCBkAwNAYJYIZIAYb4
QgENBCcWJUVhc3ktUlNBIEdlbmVyYXRlZCBTZXJ2ZXIgQ2VydGlmaWNhdGUwHQYD
VR0OBBYEFDD84f4JhjLrdRztFjXNaN/lrPD8MIH2BgNVHSMEge4wgeuAFPmmUFz7
zfx1FeTOMDreMx0hPN7PoYG8pIG5MIG2MQswCQYDVQQGEwJOVDEVMBMGA1UECBMM
VGhlIEludGVybmV0MRYwFAYDVQQHEw1WZWxlcyBOZXR3b3JrMRMwEQYDVQQKEwpW
ZWxlcyBDb3JlMQ0wCwYDVQQLEwRkVlBOMRswGQYDVQQDExJWZWxlcyBDb3JlIGRW
UE4gQ0ExEzARBgNVBCkTClZlbGVzIGRWUE4xIjAgBgkqhkiG9w0BCQEWE2FkbWlu
QHZlbGVzLm5ldHdvcmuCFBjCRyacbjY6n0qkgnZpZydxWyrRMBMGA1UdJQQMMAoG
CCsGAQUFBwMBMAsGA1UdDwQEAwIFoDARBgNVHREECjAIggZzZXJ2ZXIwDQYJKoZI
hvcNAQELBQADggEBAIz43gAK1duAvR2i0P67PdBywVtkF4/PWdJt3/fjfj/w7/fw
A87EazeGAbTc70qE5LQg1bhq+7D+oUAtbd/tKf40u3h5u2eneNLQ1riDy47mnufh
XwsLJ1N3v7PiIhm7SSSEMjtVTXGYn3hFyKIcWfb3ivvEkIP47VFuIXSPhewB3Cnr
6sLNxttZ9EhmTaA6WLP/bhudAACWouS3wEIz/7neUxJ1EWk85lhwRauy0Zz02dOG
STmROvCq95MimrHeIz3J1XvQk0oOtworrGMwJcwEXXyt30WXh4SXdDtpFZhl1BWZ
rKHP5m4k3p6wsh9mxAmlKDtpimd3K/aXKFDuua4=
-----END CERTIFICATE-----
