Certificate:
    Data:
        Version: 3 (0x2)
        Serial Number: 111 (0x6f)
        Signature Algorithm: sha256WithRSAEncryption
        Issuer: C=NT, ST=The Internet, L=Veles Network, O=Veles Core, OU=dVPN, CN=Veles Core dVPN CA/name=Veles dVPN/emailAddress=admin@veles.network
        Validity
            Not Before: Nov 27 16:28:31 2019 GMT
            Not After : Nov 24 16:28:31 2029 GMT
        Subject: C=NT, ST=The Internet, L=Veles Network, O=Veles Core, OU=dVPN, CN=stunnel/name=Veles dVPN Node/emailAddress=admin@veles.network
        Subject Public Key Info:
            Public Key Algorithm: rsaEncryption
                RSA Public-Key: (2048 bit)
                Modulus:
                    00:bc:10:78:cf:2f:4f:a5:6a:c7:00:03:b9:24:78:
                    43:fd:a2:e7:ca:2b:cc:6a:c3:67:b9:66:90:f1:13:
                    4a:13:21:f3:05:b7:99:5e:9f:80:7e:f3:6c:f7:1c:
                    61:33:72:6a:5e:4b:e0:fc:71:1d:8d:77:54:cb:84:
                    e0:58:ee:f0:60:23:4a:b7:60:2d:b6:a9:ad:c6:be:
                    2d:cc:b9:0b:76:e5:24:97:5d:9f:e0:7b:ec:89:64:
                    00:c0:92:59:98:3b:ad:82:ad:0f:5a:54:88:2f:0d:
                    40:17:a8:d4:cc:87:18:27:6c:33:0e:34:34:c2:95:
                    31:f1:80:f2:c5:c9:ac:05:5f:f6:be:7a:48:59:0c:
                    57:17:d0:29:fa:8c:1b:fe:88:3e:91:1c:99:43:52:
                    7c:a1:66:97:d0:3d:92:fe:0a:94:61:aa:88:d6:84:
                    21:0e:04:83:5a:d7:8b:aa:32:5e:af:b3:6e:9a:69:
                    46:c7:5d:a0:11:46:33:d8:70:13:65:84:6c:c0:5d:
                    70:c5:ec:d5:cb:4b:96:c1:00:3e:81:29:36:b5:a7:
                    99:1b:fc:e9:12:92:ae:77:5d:f9:60:5e:d9:bc:45:
                    50:65:69:54:93:e2:dc:0f:e8:98:0e:11:a1:0f:8d:
                    e9:e2:90:75:4d:8c:cb:71:d7:e7:08:69:cf:34:b2:
                    bd:9b
                Exponent: 65537 (0x10001)
        X509v3 extensions:
            X509v3 Basic Constraints: 
                CA:FALSE
            Netscape Cert Type: 
                SSL Server
            Netscape Comment: 
                Easy-RSA Generated Server Certificate
            X509v3 Subject Key Identifier: 
                6E:46:91:EB:BA:57:FD:4E:C8:71:37:CA:29:37:AF:81:10:F9:12:C8
            X509v3 Authority Key Identifier: 
                keyid:F9:A6:50:5C:FB:CD:FC:75:15:E4:CE:30:3A:DE:33:1D:21:3C:DE:CF
                DirName:/C=NT/ST=The Internet/L=Veles Network/O=Veles Core/OU=dVPN/CN=Veles Core dVPN CA/name=Veles dVPN/emailAddress=admin@veles.network
                serial:18:C2:47:26:9C:6E:36:3A:9F:4A:A4:82:76:69:67:27:71:5B:2A:D1

            X509v3 Extended Key Usage: 
                TLS Web Server Authentication
            X509v3 Key Usage: 
                Digital Signature, Key Encipherment
            X509v3 Subject Alternative Name: 
                DNS:stunnel
    Signature Algorithm: sha256WithRSAEncryption
         8b:1d:4c:fd:36:9c:ec:8b:f1:8b:38:c8:5c:cd:ae:6b:d5:f7:
         f7:e0:2b:05:33:e7:8d:96:d9:ee:b6:19:62:6e:b3:10:05:56:
         84:be:5a:b8:ed:65:af:01:01:1d:3f:e9:1f:97:26:ef:d8:3b:
         6b:9c:40:b9:01:ec:18:5d:28:a5:64:bb:20:9d:02:0d:b9:bd:
         25:a2:5d:04:6c:88:b0:0f:69:bf:36:04:53:54:8f:44:9a:73:
         57:13:66:14:81:9c:b5:65:07:cf:d0:a5:47:ba:e2:d3:b8:35:
         66:d6:b0:33:25:3b:6b:66:6e:31:c3:d5:73:51:f8:dc:d9:a6:
         34:97:5b:43:d4:8a:2c:cc:c1:f2:0c:74:0b:06:75:13:3b:ea:
         bf:04:0b:f2:79:b8:7b:31:d2:ca:55:6d:6a:c9:9a:ee:6b:d9:
         96:3d:1e:72:a5:36:ab:da:38:ac:74:92:e8:10:e1:d4:31:03:
         c4:95:da:38:24:fe:43:37:b7:7a:d9:47:eb:75:55:c2:4b:91:
         f3:a6:37:55:e5:2f:de:e8:e1:62:40:b6:8d:8a:75:f2:62:a8:
         3c:14:3f:2c:c7:72:f9:27:ce:52:fd:86:89:70:b6:ea:a8:77:
         9f:4e:2b:0d:3c:ed:94:75:7d:97:13:09:c5:74:0c:5a:31:01:
         a3:00:8d:ad
-----BEGIN CERTIFICATE-----
MIIFizCCBHOgAwIBAgIBbzANBgkqhkiG9w0BAQsFADCBtjELMAkGA1UEBhMCTlQx
FTATBgNVBAgTDFRoZSBJbnRlcm5ldDEWMBQGA1UEBxMNVmVsZXMgTmV0d29yazET
MBEGA1UEChMKVmVsZXMgQ29yZTENMAsGA1UECxMEZFZQTjEbMBkGA1UEAxMSVmVs
ZXMgQ29yZSBkVlBOIENBMRMwEQYDVQQpEwpWZWxlcyBkVlBOMSIwIAYJKoZIhvcN
AQkBFhNhZG1pbkB2ZWxlcy5uZXR3b3JrMB4XDTE5MTEyNzE2MjgzMVoXDTI5MTEy
NDE2MjgzMVowgbAxCzAJBgNVBAYTAk5UMRUwEwYDVQQIEwxUaGUgSW50ZXJuZXQx
FjAUBgNVBAcTDVZlbGVzIE5ldHdvcmsxEzARBgNVBAoTClZlbGVzIENvcmUxDTAL
BgNVBAsTBGRWUE4xEDAOBgNVBAMTB3N0dW5uZWwxGDAWBgNVBCkTD1ZlbGVzIGRW
UE4gTm9kZTEiMCAGCSqGSIb3DQEJARYTYWRtaW5AdmVsZXMubmV0d29yazCCASIw
DQYJKoZIhvcNAQEBBQADggEPADCCAQoCggEBALwQeM8vT6VqxwADuSR4Q/2i58or
zGrDZ7lmkPETShMh8wW3mV6fgH7zbPccYTNyal5L4PxxHY13VMuE4Fju8GAjSrdg
Lbaprca+Lcy5C3blJJddn+B77IlkAMCSWZg7rYKtD1pUiC8NQBeo1MyHGCdsMw40
NMKVMfGA8sXJrAVf9r56SFkMVxfQKfqMG/6IPpEcmUNSfKFml9A9kv4KlGGqiNaE
IQ4Eg1rXi6oyXq+zbpppRsddoBFGM9hwE2WEbMBdcMXs1ctLlsEAPoEpNrWnmRv8
6RKSrndd+WBe2bxFUGVpVJPi3A/omA4RoQ+N6eKQdU2My3HX5whpzzSyvZsCAwEA
AaOCAaYwggGiMAkGA1UdEwQCMAAwEQYJYIZIAYb4QgEBBAQDAgZAMDQGCWCGSAGG
+EIBDQQnFiVFYXN5LVJTQSBHZW5lcmF0ZWQgU2VydmVyIENlcnRpZmljYXRlMB0G
A1UdDgQWBBRuRpHrulf9TshxN8opN6+BEPkSyDCB9gYDVR0jBIHuMIHrgBT5plBc
+838dRXkzjA63jMdITzez6GBvKSBuTCBtjELMAkGA1UEBhMCTlQxFTATBgNVBAgT
DFRoZSBJbnRlcm5ldDEWMBQGA1UEBxMNVmVsZXMgTmV0d29yazETMBEGA1UEChMK
VmVsZXMgQ29yZTENMAsGA1UECxMEZFZQTjEbMBkGA1UEAxMSVmVsZXMgQ29yZSBk
VlBOIENBMRMwEQYDVQQpEwpWZWxlcyBkVlBOMSIwIAYJKoZIhvcNAQkBFhNhZG1p
bkB2ZWxlcy5uZXR3b3JrghQYwkcmnG42Op9KpIJ2aWcncVsq0TATBgNVHSUEDDAK
BggrBgEFBQcDATALBgNVHQ8EBAMCBaAwEgYDVR0RBAswCYIHc3R1bm5lbDANBgkq
hkiG9w0BAQsFAAOCAQEAix1M/Tac7IvxizjIXM2ua9X39+ArBTPnjZbZ7rYZYm6z
EAVWhL5auO1lrwEBHT/pH5cm79g7a5xAuQHsGF0opWS7IJ0CDbm9JaJdBGyIsA9p
vzYEU1SPRJpzVxNmFIGctWUHz9ClR7ri07g1ZtawMyU7a2ZuMcPVc1H43NmmNJdb
Q9SKLMzB8gx0CwZ1EzvqvwQL8nm4ezHSylVtasma7mvZlj0ecqU2q9o4rHSS6BDh
1DEDxJXaOCT+Qze3etlH63VVwkuR86Y3VeUv3ujhYkC2jYp18mKoPBQ/LMdy+SfO
Uv2GiXC26qh3n04rDTztlHV9lxMJxXQMWjEBowCNrQ==
-----END CERTIFICATE-----
